target datalayout = "e-m:e-p270:32:32-p271:32:32-p272:64:64-i64:64-i128:128-f80:128-n8:16:32:64-S128"
target triple = "x86_64-unknown-linux-gnu"

%struct.alts_grpc_handshaker_client = type { %struct.alts_handshaker_client, %struct.gpr_refcount, ptr, ptr, ptr, %struct.grpc_closure, ptr, ptr, i8, %struct.grpc_metadata_array, ptr, ptr, ptr, %struct.grpc_slice, i8, %struct.grpc_slice, ptr, i64, %struct.grpc_closure, i32, %struct.grpc_slice, %"class.absl::lts_20230802::Mutex", i8, ptr, i64, ptr }
%struct.alts_handshaker_client = type { ptr }
%struct.gpr_refcount = type { i64 }
%struct.grpc_metadata_array = type { i64, i64, ptr }
%struct.grpc_closure = type { %union.anon, ptr, ptr, %union.anon.0 }
%union.anon = type { ptr }
%union.anon.0 = type { i64 }
%struct.grpc_slice = type { ptr, %"union.grpc_slice::grpc_slice_data" }
%"union.grpc_slice::grpc_slice_data" = type { %"struct.grpc_slice::grpc_slice_data::grpc_slice_refcounted", [8 x i8] }
%"struct.grpc_slice::grpc_slice_data::grpc_slice_refcounted" = type { i64, ptr }
%"class.absl::lts_20230802::Mutex" = type { %"struct.std::atomic" }
%"struct.std::atomic" = type { %"struct.std::__atomic_base" }
%"struct.std::__atomic_base" = type { i64 }
%struct.recv_message_result = type { i32, ptr, i64, ptr }

; Function Attrs: mustprogress uwtable
define linkonce_odr noundef ptr @_ZN9grpc_core6ZallocI19recv_message_resultEEPT_v() #4 comdat {
entry:
  %call = call ptr @gpr_zalloc(i64 noundef 32)
  ret ptr %call
}

; Function Attrs: mustprogress uwtable
define internal void @_ZL20handle_response_doneP27alts_grpc_handshaker_client10tsi_resultNSt7__cxx1112basic_stringIcSt11char_traitsIcESaIcEEEPKhmP21tsi_handshaker_result(ptr noundef %client, i32 noundef %status, ptr noundef %error, ptr noundef %bytes_to_send, i64 noundef %bytes_to_send_size, ptr noundef %result) #4 {
entry:
  %client.addr = alloca ptr, align 8
  %status.addr = alloca i32, align 4
  %error.indirect_addr = alloca ptr, align 8
  %bytes_to_send.addr = alloca ptr, align 8
  %bytes_to_send_size.addr = alloca i64, align 8
  %result.addr = alloca ptr, align 8
  %p = alloca ptr, align 8
  store ptr %client, ptr %client.addr, align 8
  store i32 %status, ptr %status.addr, align 4
  store ptr %error, ptr %error.indirect_addr, align 8
  store ptr %bytes_to_send, ptr %bytes_to_send.addr, align 8
  store i64 %bytes_to_send_size, ptr %bytes_to_send_size.addr, align 8
  store ptr %result, ptr %result.addr, align 8
  %0 = load ptr, ptr %client.addr, align 8
  %error1 = getelementptr inbounds %struct.alts_grpc_handshaker_client, ptr %0, i32 0, i32 25
  %1 = load ptr, ptr %error1, align 8
  %cmp = icmp ne ptr %1, null
  br i1 %cmp, label %if.then, label %if.end

if.then:                                          ; preds = %entry
  %2 = load ptr, ptr %client.addr, align 8
  %error2 = getelementptr inbounds %struct.alts_grpc_handshaker_client, ptr %2, i32 0, i32 25
  %3 = load ptr, ptr %error2, align 8
  %call = call noundef nonnull align 8 dereferenceable(32) ptr @_ZNSt7__cxx1112basic_stringIcSt11char_traitsIcESaIcEEaSEOS4_(ptr noundef nonnull align 8 dereferenceable(32) %3, ptr noundef nonnull align 8 dereferenceable(32) %error) #3
  br label %if.end

if.end:                                           ; preds = %if.then, %entry
  %call3 = call noundef ptr @_ZN9grpc_core6ZallocI19recv_message_resultEEPT_v()
  store ptr %call3, ptr %p, align 8
  %4 = load i32, ptr %status.addr, align 4
  %5 = load ptr, ptr %p, align 8
  %status4 = getelementptr inbounds %struct.recv_message_result, ptr %5, i32 0, i32 0
  store i32 %4, ptr %status4, align 8
  %6 = load ptr, ptr %bytes_to_send.addr, align 8
  %7 = load ptr, ptr %p, align 8
  %bytes_to_send5 = getelementptr inbounds %struct.recv_message_result, ptr %7, i32 0, i32 1
  store ptr %6, ptr %bytes_to_send5, align 8
  %8 = load i64, ptr %bytes_to_send_size.addr, align 8
  %9 = load ptr, ptr %p, align 8
  %bytes_to_send_size6 = getelementptr inbounds %struct.recv_message_result, ptr %9, i32 0, i32 2
  store i64 %8, ptr %bytes_to_send_size6, align 8
  %10 = load ptr, ptr %result.addr, align 8
  %11 = load ptr, ptr %p, align 8
  %result7 = getelementptr inbounds %struct.recv_message_result, ptr %11, i32 0, i32 3
  store ptr %10, ptr %result7, align 8
  %12 = load ptr, ptr %client.addr, align 8
  %13 = load ptr, ptr %p, align 8
  call void @_ZL23maybe_complete_tsi_nextP27alts_grpc_handshaker_clientbP19recv_message_result(ptr noundef %12, i1 noundef zeroext false, ptr noundef %13)
  ret void
}