; Function Attrs: mustprogress uwtable
define internal fastcc void @_ZL20handle_response_doneP27alts_grpc_handshaker_client10tsi_resultNSt7__cxx1112basic_stringIcSt11char_traitsIcESaIcEEEPKhmP21tsi_handshaker_result(ptr noundef %client, i32 noundef %status, ptr noundef %error, ptr noundef %bytes_to_send, i64 noundef %bytes_to_send_size, ptr noundef %result) unnamed_addr #3 {
entry:
  %error1 = getelementptr inbounds i8, ptr %client, i64 336
  %0 = load ptr, ptr %error1, align 8
  %cmp.not = icmp eq ptr %0, null
  br i1 %cmp.not, label %if.end, label %if.then

if.then:                                          ; preds = %entry
  %call = tail call noundef nonnull align 8 dereferenceable(32) ptr @_ZNSt7__cxx1112basic_stringIcSt11char_traitsIcESaIcEEaSEOS4_(ptr noundef nonnull align 8 dereferenceable(32) %0, ptr noundef nonnull align 8 dereferenceable(32) %error) #18
  br label %if.end

if.end:                                           ; preds = %if.then, %entry
  %call.i = tail call noundef ptr @gpr_zalloc(i64 noundef 32)
  store i32 %status, ptr %call.i, align 8
  %bytes_to_send5 = getelementptr inbounds i8, ptr %call.i, i64 8
  store ptr %bytes_to_send, ptr %bytes_to_send5, align 8
  %bytes_to_send_size6 = getelementptr inbounds i8, ptr %call.i, i64 16
  store i64 %bytes_to_send_size, ptr %bytes_to_send_size6, align 8
  %result7 = getelementptr inbounds i8, ptr %call.i, i64 24
  store ptr %result, ptr %result7, align 8
  tail call fastcc void @_ZL23maybe_complete_tsi_nextP27alts_grpc_handshaker_clientbP19recv_message_result(ptr noundef nonnull %client, i1 noundef zeroext false, ptr noundef nonnull %call.i)
  ret void
}